
lab4.elf:     file format elf32-avr

Sections:
Idx Name          Size      VMA       LMA       File off  Algn
  0 .data         00000020  00800100  0000040e  000004a2  2**0
                  CONTENTS, ALLOC, LOAD, DATA
  1 .text         0000040e  00000000  00000000  00000094  2**1
                  CONTENTS, ALLOC, LOAD, READONLY, CODE
  2 .bss          00000014  00800120  00800120  000004c2  2**0
                  ALLOC
  3 .comment      00000030  00000000  00000000  000004c2  2**0
                  CONTENTS, READONLY
  4 .note.gnu.avr.deviceinfo 0000003c  00000000  00000000  000004f4  2**2
                  CONTENTS, READONLY
  5 .debug_aranges 00000058  00000000  00000000  00000530  2**0
                  CONTENTS, READONLY, DEBUGGING
  6 .debug_info   0000082f  00000000  00000000  00000588  2**0
                  CONTENTS, READONLY, DEBUGGING
  7 .debug_abbrev 0000065f  00000000  00000000  00000db7  2**0
                  CONTENTS, READONLY, DEBUGGING
  8 .debug_line   00000438  00000000  00000000  00001416  2**0
                  CONTENTS, READONLY, DEBUGGING
  9 .debug_frame  000000e8  00000000  00000000  00001850  2**2
                  CONTENTS, READONLY, DEBUGGING
 10 .debug_str    0000040e  00000000  00000000  00001938  2**0
                  CONTENTS, READONLY, DEBUGGING
 11 .debug_loc    0000010f  00000000  00000000  00001d46  2**0
                  CONTENTS, READONLY, DEBUGGING
 12 .debug_ranges 00000048  00000000  00000000  00001e55  2**0
                  CONTENTS, READONLY, DEBUGGING

Disassembly of section .text:

00000000 <__vectors>:
   0:	0c 94 34 00 	jmp	0x68	; 0x68 <__ctors_end>
   4:	0c 94 51 00 	jmp	0xa2	; 0xa2 <__bad_interrupt>
   8:	0c 94 51 00 	jmp	0xa2	; 0xa2 <__bad_interrupt>
   c:	0c 94 51 00 	jmp	0xa2	; 0xa2 <__bad_interrupt>
  10:	0c 94 40 01 	jmp	0x280	; 0x280 <__vector_4>
  14:	0c 94 51 00 	jmp	0xa2	; 0xa2 <__bad_interrupt>
  18:	0c 94 51 00 	jmp	0xa2	; 0xa2 <__bad_interrupt>
  1c:	0c 94 51 00 	jmp	0xa2	; 0xa2 <__bad_interrupt>
  20:	0c 94 51 00 	jmp	0xa2	; 0xa2 <__bad_interrupt>
  24:	0c 94 51 00 	jmp	0xa2	; 0xa2 <__bad_interrupt>
  28:	0c 94 51 00 	jmp	0xa2	; 0xa2 <__bad_interrupt>
  2c:	0c 94 51 00 	jmp	0xa2	; 0xa2 <__bad_interrupt>
  30:	0c 94 51 00 	jmp	0xa2	; 0xa2 <__bad_interrupt>
  34:	0c 94 51 00 	jmp	0xa2	; 0xa2 <__bad_interrupt>
  38:	0c 94 51 00 	jmp	0xa2	; 0xa2 <__bad_interrupt>
  3c:	0c 94 51 00 	jmp	0xa2	; 0xa2 <__bad_interrupt>
  40:	0c 94 67 01 	jmp	0x2ce	; 0x2ce <__vector_16>
  44:	0c 94 51 00 	jmp	0xa2	; 0xa2 <__bad_interrupt>
  48:	0c 94 51 00 	jmp	0xa2	; 0xa2 <__bad_interrupt>
  4c:	0c 94 51 00 	jmp	0xa2	; 0xa2 <__bad_interrupt>
  50:	0c 94 51 00 	jmp	0xa2	; 0xa2 <__bad_interrupt>
  54:	0c 94 dd 01 	jmp	0x3ba	; 0x3ba <__vector_21>
  58:	0c 94 51 00 	jmp	0xa2	; 0xa2 <__bad_interrupt>
  5c:	0c 94 51 00 	jmp	0xa2	; 0xa2 <__bad_interrupt>
  60:	0c 94 51 00 	jmp	0xa2	; 0xa2 <__bad_interrupt>
  64:	0c 94 51 00 	jmp	0xa2	; 0xa2 <__bad_interrupt>

00000068 <__ctors_end>:
  68:	11 24       	eor	r1, r1
  6a:	1f be       	out	0x3f, r1	; 63
  6c:	cf ef       	ldi	r28, 0xFF	; 255
  6e:	d8 e0       	ldi	r29, 0x08	; 8
  70:	de bf       	out	0x3e, r29	; 62
  72:	cd bf       	out	0x3d, r28	; 61

00000074 <__do_copy_data>:
  74:	11 e0       	ldi	r17, 0x01	; 1
  76:	a0 e0       	ldi	r26, 0x00	; 0
  78:	b1 e0       	ldi	r27, 0x01	; 1
  7a:	ee e0       	ldi	r30, 0x0E	; 14
  7c:	f4 e0       	ldi	r31, 0x04	; 4
  7e:	02 c0       	rjmp	.+4      	; 0x84 <__do_copy_data+0x10>
  80:	05 90       	lpm	r0, Z+
  82:	0d 92       	st	X+, r0
  84:	a0 32       	cpi	r26, 0x20	; 32
  86:	b1 07       	cpc	r27, r17
  88:	d9 f7       	brne	.-10     	; 0x80 <__do_copy_data+0xc>

0000008a <__do_clear_bss>:
  8a:	21 e0       	ldi	r18, 0x01	; 1
  8c:	a0 e2       	ldi	r26, 0x20	; 32
  8e:	b1 e0       	ldi	r27, 0x01	; 1
  90:	01 c0       	rjmp	.+2      	; 0x94 <.do_clear_bss_start>

00000092 <.do_clear_bss_loop>:
  92:	1d 92       	st	X+, r1

00000094 <.do_clear_bss_start>:
  94:	a4 33       	cpi	r26, 0x34	; 52
  96:	b2 07       	cpc	r27, r18
  98:	e1 f7       	brne	.-8      	; 0x92 <.do_clear_bss_loop>
  9a:	0e 94 bc 00 	call	0x178	; 0x178 <main>
  9e:	0c 94 05 02 	jmp	0x40a	; 0x40a <_exit>

000000a2 <__bad_interrupt>:
  a2:	0c 94 00 00 	jmp	0	; 0x0 <__vectors>

000000a6 <setup>:
}
// FUNCIONES E INTERUPCIONES 
void setup(void){
	
	// ACTIVAR LOS PUERTOS D COMO SALIDAS
 	DDRD = 0xFF;
  a6:	8f ef       	ldi	r24, 0xFF	; 255
  a8:	8a b9       	out	0x0a, r24	; 10
	PORTD =0x00;
  aa:	1b b8       	out	0x0b, r1	; 11
	// ACTIVAR LOS PUERTOS B COMO SALIDAS
	DDRB= 0xFF;
  ac:	84 b9       	out	0x04, r24	; 4
	PORTB= 0x00;
  ae:	15 b8       	out	0x05, r1	; 5
	//ACTIVAR LOS PUERTOS 0-3 COMO SALIDAS Y 4- 7 COMO ENTRADAS
	DDRC= 0x0F;
  b0:	8f e0       	ldi	r24, 0x0F	; 15
  b2:	87 b9       	out	0x07, r24	; 7
	PORTC=0xF0;
  b4:	80 ef       	ldi	r24, 0xF0	; 240
  b6:	88 b9       	out	0x08, r24	; 8
	//ACTIVAR  LAS INTERUPCCIONES DEL PUERTO C
	PCICR |= (1<<PCIE1);
  b8:	e8 e6       	ldi	r30, 0x68	; 104
  ba:	f0 e0       	ldi	r31, 0x00	; 0
  bc:	80 81       	ld	r24, Z
  be:	82 60       	ori	r24, 0x02	; 2
  c0:	80 83       	st	Z, r24
	PCMSK1 |= (1<< PCINT13)|(1<<PCINT12);
  c2:	ec e6       	ldi	r30, 0x6C	; 108
  c4:	f0 e0       	ldi	r31, 0x00	; 0
  c6:	80 81       	ld	r24, Z
  c8:	80 63       	ori	r24, 0x30	; 48
  ca:	80 83       	st	Z, r24
	//DESACTIVAR EL RX Y TX
	UCSR0B = 0x00;
  cc:	10 92 c1 00 	sts	0x00C1, r1	; 0x8000c1 <__TEXT_REGION_LENGTH__+0x7f80c1>
  d0:	08 95       	ret

000000d2 <mover_pines>:
}
void mover_pines(void){
	contador_c = (contador>>4)& 0b1111;
  d2:	80 91 28 01 	lds	r24, 0x0128	; 0x800128 <contador>
  d6:	90 91 29 01 	lds	r25, 0x0129	; 0x800129 <contador+0x1>
  da:	9c 01       	movw	r18, r24
  dc:	35 95       	asr	r19
  de:	27 95       	ror	r18
  e0:	35 95       	asr	r19
  e2:	27 95       	ror	r18
  e4:	35 95       	asr	r19
  e6:	27 95       	ror	r18
  e8:	35 95       	asr	r19
  ea:	27 95       	ror	r18
  ec:	2f 70       	andi	r18, 0x0F	; 15
  ee:	33 27       	eor	r19, r19
  f0:	30 93 33 01 	sts	0x0133, r19	; 0x800133 <contador_c+0x1>
  f4:	20 93 32 01 	sts	0x0132, r18	; 0x800132 <contador_c>
	contador_b=contador<<2;
  f8:	88 0f       	add	r24, r24
  fa:	99 1f       	adc	r25, r25
  fc:	88 0f       	add	r24, r24
  fe:	99 1f       	adc	r25, r25
 100:	90 93 23 01 	sts	0x0123, r25	; 0x800123 <contador_b+0x1>
 104:	80 93 22 01 	sts	0x0122, r24	; 0x800122 <contador_b>
	if (transistores==0){
 108:	20 91 26 01 	lds	r18, 0x0126	; 0x800126 <transistores>
 10c:	30 91 27 01 	lds	r19, 0x0127	; 0x800127 <transistores+0x1>
 110:	21 15       	cp	r18, r1
 112:	31 05       	cpc	r19, r1
 114:	19 f4       	brne	.+6      	; 0x11c <mover_pines+0x4a>
		PORTB= contador_b|0x01;
 116:	81 60       	ori	r24, 0x01	; 1
 118:	85 b9       	out	0x05, r24	; 5
 11a:	05 c0       	rjmp	.+10     	; 0x126 <mover_pines+0x54>
	}else if (transistores==1){
 11c:	21 30       	cpi	r18, 0x01	; 1
 11e:	31 05       	cpc	r19, r1
 120:	11 f4       	brne	.+4      	; 0x126 <mover_pines+0x54>
		PORTB=contador_b|0x02;
 122:	82 60       	ori	r24, 0x02	; 2
 124:	85 b9       	out	0x05, r24	; 5
	}
	PORTC= (contador_c)|0xF0;
 126:	80 91 32 01 	lds	r24, 0x0132	; 0x800132 <contador_c>
 12a:	80 6f       	ori	r24, 0xF0	; 240
 12c:	88 b9       	out	0x08, r24	; 8
 12e:	08 95       	ret

00000130 <timmer0>:
}
void timmer0(void){
	TCCR0B |= (1<<CS02)|(1<<CS00);
 130:	85 b5       	in	r24, 0x25	; 37
 132:	85 60       	ori	r24, 0x05	; 5
 134:	85 bd       	out	0x25, r24	; 37
	TCNT0 = 100;
 136:	84 e6       	ldi	r24, 0x64	; 100
 138:	86 bd       	out	0x26, r24	; 38
	TIMSK0 |= (1<<TOV0);
 13a:	ee e6       	ldi	r30, 0x6E	; 110
 13c:	f0 e0       	ldi	r31, 0x00	; 0
 13e:	80 81       	ld	r24, Z
 140:	81 60       	ori	r24, 0x01	; 1
 142:	80 83       	st	Z, r24
 144:	08 95       	ret

00000146 <initadc>:
}
void initadc(void){
	// VOLTAJE DE REF ES 5V
	ADMUX = 0,
 146:	ec e7       	ldi	r30, 0x7C	; 124
 148:	f0 e0       	ldi	r31, 0x00	; 0
 14a:	10 82       	st	Z, r1
	ADMUX |= (1<<REFS0);
 14c:	80 81       	ld	r24, Z
 14e:	80 64       	ori	r24, 0x40	; 64
 150:	80 83       	st	Z, r24
	ADMUX |= (1<<ADLAR);
 152:	80 81       	ld	r24, Z
 154:	80 62       	ori	r24, 0x20	; 32
 156:	80 83       	st	Z, r24
	// Entrada 6 de MUX
	ADMUX |=(1<<MUX1)|(1<<MUX2)|(1<<ADLAR);
 158:	80 81       	ld	r24, Z
 15a:	86 62       	ori	r24, 0x26	; 38
 15c:	80 83       	st	Z, r24
	//SETEAR LA VIANA DEL ADC
	ADCSRA =0;
 15e:	ea e7       	ldi	r30, 0x7A	; 122
 160:	f0 e0       	ldi	r31, 0x00	; 0
 162:	10 82       	st	Z, r1
	ADCSRA |= (1<<ADEN); //PRENDER EL ADC
 164:	80 81       	ld	r24, Z
 166:	80 68       	ori	r24, 0x80	; 128
 168:	80 83       	st	Z, r24
	ADCSRA |= (1<<ADIE); // INTERUPCIONES 
 16a:	80 81       	ld	r24, Z
 16c:	88 60       	ori	r24, 0x08	; 8
 16e:	80 83       	st	Z, r24
	ADCSRA |= (1<<ADPS2) |(1<<ADPS0)|(1<<ADPS1);// PRESCALER DE 128
 170:	80 81       	ld	r24, Z
 172:	87 60       	ori	r24, 0x07	; 7
 174:	80 83       	st	Z, r24
 176:	08 95       	ret

00000178 <main>:
int leer;
 const int valores_display[16]={0xF9, 0x21, 0xBA, 0xAB, 0x63, 0xCB, 0xDB,0xA1, 0xFB, 0xEB, 0xF3, 0x5B, 0xD8, 0x3B, 0xDA, 0xD2};
// LOOP PRINCIPAL
int main(void)
{
	cli();
 178:	f8 94       	cli
	setup();
 17a:	0e 94 53 00 	call	0xa6	; 0xa6 <setup>
	timmer0();
 17e:	0e 94 98 00 	call	0x130	; 0x130 <timmer0>
	initadc();
 182:	0e 94 a3 00 	call	0x146	; 0x146 <initadc>
	sei();
 186:	78 94       	sei
	sumar=0;
 188:	10 92 21 01 	sts	0x0121, r1	; 0x800121 <__data_end+0x1>
 18c:	10 92 20 01 	sts	0x0120, r1	; 0x800120 <__data_end>
	restar=0;
 190:	10 92 2b 01 	sts	0x012B, r1	; 0x80012b <restar+0x1>
 194:	10 92 2a 01 	sts	0x012A, r1	; 0x80012a <restar>
	contador_c=0;
 198:	10 92 33 01 	sts	0x0133, r1	; 0x800133 <contador_c+0x1>
 19c:	10 92 32 01 	sts	0x0132, r1	; 0x800132 <contador_c>
    while (1) 
    {
	if(leer==10){
 1a0:	80 91 2c 01 	lds	r24, 0x012C	; 0x80012c <leer>
 1a4:	90 91 2d 01 	lds	r25, 0x012D	; 0x80012d <leer+0x1>
 1a8:	0a 97       	sbiw	r24, 0x0a	; 10
 1aa:	49 f4       	brne	.+18     	; 0x1be <main+0x46>
		leer=0;
 1ac:	10 92 2d 01 	sts	0x012D, r1	; 0x80012d <leer+0x1>
 1b0:	10 92 2c 01 	sts	0x012C, r1	; 0x80012c <leer>
		ADCSRA |= (1<<ADSC); //INICIAR EL ADC LA SECUENCIA
 1b4:	ea e7       	ldi	r30, 0x7A	; 122
 1b6:	f0 e0       	ldi	r31, 0x00	; 0
 1b8:	80 81       	ld	r24, Z
 1ba:	80 64       	ori	r24, 0x40	; 64
 1bc:	80 83       	st	Z, r24
	}
	if((sumar==1) ){
 1be:	80 91 20 01 	lds	r24, 0x0120	; 0x800120 <__data_end>
 1c2:	90 91 21 01 	lds	r25, 0x0121	; 0x800121 <__data_end+0x1>
 1c6:	01 97       	sbiw	r24, 0x01	; 1
 1c8:	81 f4       	brne	.+32     	; 0x1ea <main+0x72>
		sumar=0;
 1ca:	10 92 21 01 	sts	0x0121, r1	; 0x800121 <__data_end+0x1>
 1ce:	10 92 20 01 	sts	0x0120, r1	; 0x800120 <__data_end>
		contador++;
 1d2:	80 91 28 01 	lds	r24, 0x0128	; 0x800128 <contador>
 1d6:	90 91 29 01 	lds	r25, 0x0129	; 0x800129 <contador+0x1>
 1da:	01 96       	adiw	r24, 0x01	; 1
 1dc:	90 93 29 01 	sts	0x0129, r25	; 0x800129 <contador+0x1>
 1e0:	80 93 28 01 	sts	0x0128, r24	; 0x800128 <contador>
		mover_pines();
 1e4:	0e 94 69 00 	call	0xd2	; 0xd2 <mover_pines>
 1e8:	15 c0       	rjmp	.+42     	; 0x214 <main+0x9c>
    }else if((restar==1) ){
 1ea:	80 91 2a 01 	lds	r24, 0x012A	; 0x80012a <restar>
 1ee:	90 91 2b 01 	lds	r25, 0x012B	; 0x80012b <restar+0x1>
 1f2:	01 97       	sbiw	r24, 0x01	; 1
 1f4:	79 f4       	brne	.+30     	; 0x214 <main+0x9c>
		restar=0;
 1f6:	10 92 2b 01 	sts	0x012B, r1	; 0x80012b <restar+0x1>
 1fa:	10 92 2a 01 	sts	0x012A, r1	; 0x80012a <restar>
		contador--;
 1fe:	80 91 28 01 	lds	r24, 0x0128	; 0x800128 <contador>
 202:	90 91 29 01 	lds	r25, 0x0129	; 0x800129 <contador+0x1>
 206:	01 97       	sbiw	r24, 0x01	; 1
 208:	90 93 29 01 	sts	0x0129, r25	; 0x800129 <contador+0x1>
 20c:	80 93 28 01 	sts	0x0128, r24	; 0x800128 <contador>
		mover_pines();
 210:	0e 94 69 00 	call	0xd2	; 0xd2 <mover_pines>
	}
	if(((valores_display_decenas<<4)|(valores_display_unidades))==contador){
 214:	80 91 30 01 	lds	r24, 0x0130	; 0x800130 <valores_display_decenas>
 218:	90 91 31 01 	lds	r25, 0x0131	; 0x800131 <valores_display_decenas+0x1>
 21c:	82 95       	swap	r24
 21e:	92 95       	swap	r25
 220:	90 7f       	andi	r25, 0xF0	; 240
 222:	98 27       	eor	r25, r24
 224:	80 7f       	andi	r24, 0xF0	; 240
 226:	98 27       	eor	r25, r24
 228:	20 91 24 01 	lds	r18, 0x0124	; 0x800124 <valores_display_unidades>
 22c:	30 91 25 01 	lds	r19, 0x0125	; 0x800125 <valores_display_unidades+0x1>
 230:	82 2b       	or	r24, r18
 232:	93 2b       	or	r25, r19
 234:	20 91 28 01 	lds	r18, 0x0128	; 0x800128 <contador>
 238:	30 91 29 01 	lds	r19, 0x0129	; 0x800129 <contador+0x1>
 23c:	82 17       	cp	r24, r18
 23e:	93 07       	cpc	r25, r19
 240:	b9 f4       	brne	.+46     	; 0x270 <main+0xf8>
		alarma=1;
 242:	81 e0       	ldi	r24, 0x01	; 1
 244:	90 e0       	ldi	r25, 0x00	; 0
 246:	90 93 2f 01 	sts	0x012F, r25	; 0x80012f <alarma+0x1>
 24a:	80 93 2e 01 	sts	0x012E, r24	; 0x80012e <alarma>
		if (transistores==0)
 24e:	80 91 26 01 	lds	r24, 0x0126	; 0x800126 <transistores>
 252:	90 91 27 01 	lds	r25, 0x0127	; 0x800127 <transistores+0x1>
 256:	00 97       	sbiw	r24, 0x00	; 0
 258:	21 f4       	brne	.+8      	; 0x262 <main+0xea>
		{
			PORTD|=(1<<PIND2); //|valores_display_unidades;
 25a:	8b b1       	in	r24, 0x0b	; 11
 25c:	84 60       	ori	r24, 0x04	; 4
 25e:	8b b9       	out	0x0b, r24	; 11
 260:	9f cf       	rjmp	.-194    	; 0x1a0 <main+0x28>
		}else if (transistores==1)
 262:	01 97       	sbiw	r24, 0x01	; 1
 264:	09 f0       	breq	.+2      	; 0x268 <main+0xf0>
 266:	9c cf       	rjmp	.-200    	; 0x1a0 <main+0x28>
		{
			PORTD|=(1<<PIND2); //|valores_display_decenas;
 268:	8b b1       	in	r24, 0x0b	; 11
 26a:	84 60       	ori	r24, 0x04	; 4
 26c:	8b b9       	out	0x0b, r24	; 11
 26e:	98 cf       	rjmp	.-208    	; 0x1a0 <main+0x28>
		}
		}else{
		PORTD &=~(1<<PIND2);
 270:	8b b1       	in	r24, 0x0b	; 11
 272:	8b 7f       	andi	r24, 0xFB	; 251
 274:	8b b9       	out	0x0b, r24	; 11
		alarma=0;
 276:	10 92 2f 01 	sts	0x012F, r1	; 0x80012f <alarma+0x1>
 27a:	10 92 2e 01 	sts	0x012E, r1	; 0x80012e <alarma>
 27e:	90 cf       	rjmp	.-224    	; 0x1a0 <main+0x28>

00000280 <__vector_4>:
	ADCSRA |= (1<<ADIE); // INTERUPCIONES 
	ADCSRA |= (1<<ADPS2) |(1<<ADPS0)|(1<<ADPS1);// PRESCALER DE 128
	
}
//INTERUPCIONES 
ISR(PCINT1_vect){
 280:	1f 92       	push	r1
 282:	0f 92       	push	r0
 284:	0f b6       	in	r0, 0x3f	; 63
 286:	0f 92       	push	r0
 288:	11 24       	eor	r1, r1
 28a:	8f 93       	push	r24
 28c:	9f 93       	push	r25
	if(!(PINC &(1<<PINC4))){  //CUANDO ESTÉ APACHADO FUNCIONA 
 28e:	34 99       	sbic	0x06, 4	; 6
 290:	0b c0       	rjmp	.+22     	; 0x2a8 <__vector_4+0x28>
		sumar=1;
 292:	81 e0       	ldi	r24, 0x01	; 1
 294:	90 e0       	ldi	r25, 0x00	; 0
 296:	90 93 21 01 	sts	0x0121, r25	; 0x800121 <__data_end+0x1>
 29a:	80 93 20 01 	sts	0x0120, r24	; 0x800120 <__data_end>
		restar=0;
 29e:	10 92 2b 01 	sts	0x012B, r1	; 0x80012b <restar+0x1>
 2a2:	10 92 2a 01 	sts	0x012A, r1	; 0x80012a <restar>
 2a6:	0c c0       	rjmp	.+24     	; 0x2c0 <__vector_4+0x40>
		
	}else if(!(PINC &(1<<PINC5))){
 2a8:	35 99       	sbic	0x06, 5	; 6
 2aa:	0a c0       	rjmp	.+20     	; 0x2c0 <__vector_4+0x40>
		sumar=0;
 2ac:	10 92 21 01 	sts	0x0121, r1	; 0x800121 <__data_end+0x1>
 2b0:	10 92 20 01 	sts	0x0120, r1	; 0x800120 <__data_end>
		restar=1;
 2b4:	81 e0       	ldi	r24, 0x01	; 1
 2b6:	90 e0       	ldi	r25, 0x00	; 0
 2b8:	90 93 2b 01 	sts	0x012B, r25	; 0x80012b <restar+0x1>
 2bc:	80 93 2a 01 	sts	0x012A, r24	; 0x80012a <restar>
	}
}
 2c0:	9f 91       	pop	r25
 2c2:	8f 91       	pop	r24
 2c4:	0f 90       	pop	r0
 2c6:	0f be       	out	0x3f, r0	; 63
 2c8:	0f 90       	pop	r0
 2ca:	1f 90       	pop	r1
 2cc:	18 95       	reti

000002ce <__vector_16>:
ISR(TIMER0_OVF_vect){
 2ce:	1f 92       	push	r1
 2d0:	0f 92       	push	r0
 2d2:	0f b6       	in	r0, 0x3f	; 63
 2d4:	0f 92       	push	r0
 2d6:	11 24       	eor	r1, r1
 2d8:	8f 93       	push	r24
 2da:	9f 93       	push	r25
 2dc:	ef 93       	push	r30
 2de:	ff 93       	push	r31
	TCNT0=100;
 2e0:	84 e6       	ldi	r24, 0x64	; 100
 2e2:	86 bd       	out	0x26, r24	; 38
	TIFR0 |= (1<<TOV0);
 2e4:	85 b3       	in	r24, 0x15	; 21
 2e6:	81 60       	ori	r24, 0x01	; 1
 2e8:	85 bb       	out	0x15, r24	; 21
	leer++;
 2ea:	80 91 2c 01 	lds	r24, 0x012C	; 0x80012c <leer>
 2ee:	90 91 2d 01 	lds	r25, 0x012D	; 0x80012d <leer+0x1>
 2f2:	01 96       	adiw	r24, 0x01	; 1
 2f4:	90 93 2d 01 	sts	0x012D, r25	; 0x80012d <leer+0x1>
 2f8:	80 93 2c 01 	sts	0x012C, r24	; 0x80012c <leer>
	if (transistores==0){
 2fc:	80 91 26 01 	lds	r24, 0x0126	; 0x800126 <transistores>
 300:	90 91 27 01 	lds	r25, 0x0127	; 0x800127 <transistores+0x1>
 304:	00 97       	sbiw	r24, 0x00	; 0
 306:	41 f5       	brne	.+80     	; 0x358 <__vector_16+0x8a>
		transistores++;
 308:	01 96       	adiw	r24, 0x01	; 1
 30a:	90 93 27 01 	sts	0x0127, r25	; 0x800127 <transistores+0x1>
 30e:	80 93 26 01 	sts	0x0126, r24	; 0x800126 <transistores>
		PORTB &=~(1<<PORTB1);
 312:	85 b1       	in	r24, 0x05	; 5
 314:	8d 7f       	andi	r24, 0xFD	; 253
 316:	85 b9       	out	0x05, r24	; 5
		PORTB |= (1<< PORTB0);
 318:	85 b1       	in	r24, 0x05	; 5
 31a:	81 60       	ori	r24, 0x01	; 1
 31c:	85 b9       	out	0x05, r24	; 5
		if (alarma==1)
 31e:	80 91 2e 01 	lds	r24, 0x012E	; 0x80012e <alarma>
 322:	90 91 2f 01 	lds	r25, 0x012F	; 0x80012f <alarma+0x1>
 326:	01 97       	sbiw	r24, 0x01	; 1
 328:	61 f4       	brne	.+24     	; 0x342 <__vector_16+0x74>
		{
			PORTD=valores_display[valores_display_unidades]|(1<<PIND2);
 32a:	e0 91 24 01 	lds	r30, 0x0124	; 0x800124 <valores_display_unidades>
 32e:	f0 91 25 01 	lds	r31, 0x0125	; 0x800125 <valores_display_unidades+0x1>
 332:	ee 0f       	add	r30, r30
 334:	ff 1f       	adc	r31, r31
 336:	e0 50       	subi	r30, 0x00	; 0
 338:	ff 4f       	sbci	r31, 0xFF	; 255
 33a:	80 81       	ld	r24, Z
 33c:	84 60       	ori	r24, 0x04	; 4
 33e:	8b b9       	out	0x0b, r24	; 11
 340:	33 c0       	rjmp	.+102    	; 0x3a8 <__vector_16+0xda>
			}else{
			PORTD=valores_display[valores_display_unidades];
 342:	e0 91 24 01 	lds	r30, 0x0124	; 0x800124 <valores_display_unidades>
 346:	f0 91 25 01 	lds	r31, 0x0125	; 0x800125 <valores_display_unidades+0x1>
 34a:	ee 0f       	add	r30, r30
 34c:	ff 1f       	adc	r31, r31
 34e:	e0 50       	subi	r30, 0x00	; 0
 350:	ff 4f       	sbci	r31, 0xFF	; 255
 352:	80 81       	ld	r24, Z
 354:	8b b9       	out	0x0b, r24	; 11
 356:	28 c0       	rjmp	.+80     	; 0x3a8 <__vector_16+0xda>
		}
		
		}else if(transistores==1){
 358:	01 97       	sbiw	r24, 0x01	; 1
 35a:	31 f5       	brne	.+76     	; 0x3a8 <__vector_16+0xda>
		transistores=0;
 35c:	10 92 27 01 	sts	0x0127, r1	; 0x800127 <transistores+0x1>
 360:	10 92 26 01 	sts	0x0126, r1	; 0x800126 <transistores>
		PORTB &=~(1<<PORTB0);
 364:	85 b1       	in	r24, 0x05	; 5
 366:	8e 7f       	andi	r24, 0xFE	; 254
 368:	85 b9       	out	0x05, r24	; 5
		PORTB |= (1<< PORTB1);
 36a:	85 b1       	in	r24, 0x05	; 5
 36c:	82 60       	ori	r24, 0x02	; 2
 36e:	85 b9       	out	0x05, r24	; 5
		if (alarma==1)
 370:	80 91 2e 01 	lds	r24, 0x012E	; 0x80012e <alarma>
 374:	90 91 2f 01 	lds	r25, 0x012F	; 0x80012f <alarma+0x1>
 378:	01 97       	sbiw	r24, 0x01	; 1
 37a:	61 f4       	brne	.+24     	; 0x394 <__vector_16+0xc6>
		{
			PORTD=valores_display[valores_display_decenas]|(1<<PIND2);
 37c:	e0 91 30 01 	lds	r30, 0x0130	; 0x800130 <valores_display_decenas>
 380:	f0 91 31 01 	lds	r31, 0x0131	; 0x800131 <valores_display_decenas+0x1>
 384:	ee 0f       	add	r30, r30
 386:	ff 1f       	adc	r31, r31
 388:	e0 50       	subi	r30, 0x00	; 0
 38a:	ff 4f       	sbci	r31, 0xFF	; 255
 38c:	80 81       	ld	r24, Z
 38e:	84 60       	ori	r24, 0x04	; 4
 390:	8b b9       	out	0x0b, r24	; 11
 392:	0a c0       	rjmp	.+20     	; 0x3a8 <__vector_16+0xda>
			}else{
			PORTD=valores_display[valores_display_decenas];
 394:	e0 91 30 01 	lds	r30, 0x0130	; 0x800130 <valores_display_decenas>
 398:	f0 91 31 01 	lds	r31, 0x0131	; 0x800131 <valores_display_decenas+0x1>
 39c:	ee 0f       	add	r30, r30
 39e:	ff 1f       	adc	r31, r31
 3a0:	e0 50       	subi	r30, 0x00	; 0
 3a2:	ff 4f       	sbci	r31, 0xFF	; 255
 3a4:	80 81       	ld	r24, Z
 3a6:	8b b9       	out	0x0b, r24	; 11
		}
	}
	}
 3a8:	ff 91       	pop	r31
 3aa:	ef 91       	pop	r30
 3ac:	9f 91       	pop	r25
 3ae:	8f 91       	pop	r24
 3b0:	0f 90       	pop	r0
 3b2:	0f be       	out	0x3f, r0	; 63
 3b4:	0f 90       	pop	r0
 3b6:	1f 90       	pop	r1
 3b8:	18 95       	reti

000003ba <__vector_21>:
	
ISR(ADC_vect){
 3ba:	1f 92       	push	r1
 3bc:	0f 92       	push	r0
 3be:	0f b6       	in	r0, 0x3f	; 63
 3c0:	0f 92       	push	r0
 3c2:	11 24       	eor	r1, r1
 3c4:	8f 93       	push	r24
 3c6:	9f 93       	push	r25
 3c8:	ef 93       	push	r30
 3ca:	ff 93       	push	r31
	valores_display_unidades=(ADCH)& 0b1111;
 3cc:	e9 e7       	ldi	r30, 0x79	; 121
 3ce:	f0 e0       	ldi	r31, 0x00	; 0
 3d0:	80 81       	ld	r24, Z
 3d2:	8f 70       	andi	r24, 0x0F	; 15
 3d4:	90 e0       	ldi	r25, 0x00	; 0
 3d6:	90 93 25 01 	sts	0x0125, r25	; 0x800125 <valores_display_unidades+0x1>
 3da:	80 93 24 01 	sts	0x0124, r24	; 0x800124 <valores_display_unidades>
	valores_display_decenas= (ADCH>>4)&0b1111;
 3de:	80 81       	ld	r24, Z
 3e0:	82 95       	swap	r24
 3e2:	8f 70       	andi	r24, 0x0F	; 15
 3e4:	90 e0       	ldi	r25, 0x00	; 0
 3e6:	90 93 31 01 	sts	0x0131, r25	; 0x800131 <valores_display_decenas+0x1>
 3ea:	80 93 30 01 	sts	0x0130, r24	; 0x800130 <valores_display_decenas>
	ADCSRA |= (1<<ADIF);
 3ee:	ea e7       	ldi	r30, 0x7A	; 122
 3f0:	f0 e0       	ldi	r31, 0x00	; 0
 3f2:	80 81       	ld	r24, Z
 3f4:	80 61       	ori	r24, 0x10	; 16
 3f6:	80 83       	st	Z, r24
 3f8:	ff 91       	pop	r31
 3fa:	ef 91       	pop	r30
 3fc:	9f 91       	pop	r25
 3fe:	8f 91       	pop	r24
 400:	0f 90       	pop	r0
 402:	0f be       	out	0x3f, r0	; 63
 404:	0f 90       	pop	r0
 406:	1f 90       	pop	r1
 408:	18 95       	reti

0000040a <_exit>:
 40a:	f8 94       	cli

0000040c <__stop_program>:
 40c:	ff cf       	rjmp	.-2      	; 0x40c <__stop_program>
